; Function Attrs: mustprogress nounwind uwtable
define void @_ZN4LIEF5MachO14SegmentCommand19remove_all_sectionsEv(ptr noundef nonnull align 8 captures(none) dereferenceable(216) initializes((128, 132)) %0) local_unnamed_addr #0 align 2 {
  %2 = getelementptr inbounds nuw i8, ptr %0, i64 128
  store i32 0, ptr %2, align 8, !tbaa !63
  %3 = getelementptr inbounds nuw i8, ptr %0, i64 168
  %4 = load ptr, ptr %3, align 8, !tbaa !43
  %5 = getelementptr inbounds nuw i8, ptr %0, i64 176
  %6 = load ptr, ptr %5, align 8, !tbaa !44
  %.not.i.i = icmp eq ptr %6, %4
  br i1 %.not.i.i, label %_ZNSt6vectorISt10unique_ptrIN4LIEF5MachO7SectionESt14default_deleteIS3_EESaIS6_EE5clearEv.exit, label %.lr.ph.i.i.i.i.i

.lr.ph.i.i.i.i.i:                                 ; preds = %1, %_ZSt8_DestroyISt10unique_ptrIN4LIEF5MachO7SectionESt14default_deleteIS3_EEEvPT_.exit.i.i.i.i.i
  %.05.i.i.i.i.i = phi ptr [ %11, %_ZSt8_DestroyISt10unique_ptrIN4LIEF5MachO7SectionESt14default_deleteIS3_EEEvPT_.exit.i.i.i.i.i ], [ %4, %1 ]
  %7 = load ptr, ptr %.05.i.i.i.i.i, align 8, !tbaa !45
  %.not.i.i.i.i.i.i.i = icmp eq ptr %7, null
  br i1 %.not.i.i.i.i.i.i.i, label %_ZSt8_DestroyISt10unique_ptrIN4LIEF5MachO7SectionESt14default_deleteIS3_EEEvPT_.exit.i.i.i.i.i, label %_ZNKSt14default_deleteIN4LIEF5MachO7SectionEEclEPS2_.exit.i.i.i.i.i.i.i

_ZNKSt14default_deleteIN4LIEF5MachO7SectionEEclEPS2_.exit.i.i.i.i.i.i.i: ; preds = %.lr.ph.i.i.i.i.i
  %8 = load ptr, ptr %7, align 8, !tbaa !17
  %9 = getelementptr inbounds nuw i8, ptr %8, i64 24
  %10 = load ptr, ptr %9, align 8
  tail call void %10(ptr noundef nonnull align 8 dereferenceable(192) %7) #24
  br label %_ZSt8_DestroyISt10unique_ptrIN4LIEF5MachO7SectionESt14default_deleteIS3_EEEvPT_.exit.i.i.i.i.i

_ZSt8_DestroyISt10unique_ptrIN4LIEF5MachO7SectionESt14default_deleteIS3_EEEvPT_.exit.i.i.i.i.i: ; preds = %_ZNKSt14default_deleteIN4LIEF5MachO7SectionEEclEPS2_.exit.i.i.i.i.i.i.i, %.lr.ph.i.i.i.i.i
  store ptr null, ptr %.05.i.i.i.i.i, align 8, !tbaa !45
  %11 = getelementptr inbounds nuw i8, ptr %.05.i.i.i.i.i, i64 8
  %.not.i.i.i.i.i = icmp eq ptr %11, %6
  br i1 %.not.i.i.i.i.i, label %_ZSt8_DestroyIPSt10unique_ptrIN4LIEF5MachO7SectionESt14default_deleteIS3_EES6_EvT_S8_RSaIT0_E.exit.i.i, label %.lr.ph.i.i.i.i.i, !llvm.loop !47

_ZSt8_DestroyIPSt10unique_ptrIN4LIEF5MachO7SectionESt14default_deleteIS3_EES6_EvT_S8_RSaIT0_E.exit.i.i: ; preds = %_ZSt8_DestroyISt10unique_ptrIN4LIEF5MachO7SectionESt14default_deleteIS3_EEEvPT_.exit.i.i.i.i.i
  store ptr %4, ptr %5, align 8, !tbaa !44
  br label %_ZNSt6vectorISt10unique_ptrIN4LIEF5MachO7SectionESt14default_deleteIS3_EESaIS6_EE5clearEv.exit

_ZNSt6vectorISt10unique_ptrIN4LIEF5MachO7SectionESt14default_deleteIS3_EESaIS6_EE5clearEv.exit: ; preds = %1, %_ZSt8_DestroyIPSt10unique_ptrIN4LIEF5MachO7SectionESt14default_deleteIS3_EES6_EvT_S8_RSaIT0_E.exit.i.i
  ret void
}